; Function Attrs: nounwind uwtable
define hidden void @mpd_qdiv_u32(ptr noundef %0, ptr noundef %1, i32 noundef %2, ptr noundef readonly captures(none) %3, ptr noundef %4) local_unnamed_addr #10 {
  %6 = alloca %struct.mpd_context_t, align 8
  %7 = alloca [64 x i64], align 16
  %8 = alloca %struct.mpd_t, align 8
  %9 = zext i32 %2 to i64
  call void @llvm.lifetime.start.p0(i64 48, ptr nonnull %6) #33
  call void @llvm.lifetime.start.p0(i64 512, ptr nonnull %7) #33
  call void @llvm.lifetime.start.p0(i64 48, ptr nonnull %8) #33
  store i8 48, ptr %8, align 8, !tbaa !19
  %10 = getelementptr inbounds nuw i8, ptr %8, i64 1
  %11 = getelementptr inbounds nuw i8, ptr %8, i64 32
  call void @llvm.memset.p0.i64(ptr noundef nonnull align 1 dereferenceable(31) %10, i8 0, i64 31, i1 false)
  store i64 64, ptr %11, align 8, !tbaa !21
  %12 = getelementptr inbounds nuw i8, ptr %8, i64 40
  store ptr %7, ptr %12, align 8, !tbaa !17
  call void @mpd_maxcontext(ptr noundef nonnull %6) #33
  call fastcc void @_ssettriple(ptr noundef nonnull %8, i8 noundef zeroext 0, i64 noundef %9, i64 noundef 0)
  call void @mpd_qfinalize(ptr noundef nonnull %8, ptr noundef nonnull readonly %6, ptr noundef %4)
  call void @mpd_qdiv(ptr noundef %0, ptr noundef %1, ptr noundef nonnull %8, ptr noundef readonly %3, ptr noundef %4)
  %13 = load i8, ptr %8, align 8, !tbaa !19
  %.not.i5.i.i = icmp ugt i8 %13, 31
  br i1 %.not.i5.i.i, label %17, label %14

14:                                               ; preds = %5
  %15 = load ptr, ptr @mpd_free, align 8, !tbaa !20
  %16 = load ptr, ptr %12, align 8, !tbaa !17
  call void %15(ptr noundef %16) #33
  %.pre.i = load i8, ptr %8, align 8, !tbaa !19
  br label %17

17:                                               ; preds = %14, %5
  %18 = phi i8 [ %.pre.i, %14 ], [ %13, %5 ]
  %19 = and i8 %18, 16
  %.not.i.i.not.i = icmp eq i8 %19, 0
  br i1 %.not.i.i.not.i, label %20, label %mpd_qdiv_uint.exit

20:                                               ; preds = %17
  %21 = load ptr, ptr @mpd_free, align 8, !tbaa !20
  call void %21(ptr noundef nonnull %8) #33
  br label %mpd_qdiv_uint.exit

mpd_qdiv_uint.exit:                               ; preds = %17, %20
  call void @llvm.lifetime.end.p0(i64 48, ptr nonnull %8) #33
  call void @llvm.lifetime.end.p0(i64 512, ptr nonnull %7) #33
  call void @llvm.lifetime.end.p0(i64 48, ptr nonnull %6) #33
  ret void
}